target datalayout = "e-m:e-p270:32:32-p271:32:32-p272:64:64-i64:64-i128:128-f80:128-n8:16:32:64-S128"
target triple = "x86_64-pc-linux-gnu"

%"class.clang::ASTDeclReader" = type <{ ptr, %"class.clang::ASTDeclMerger", ptr, %"struct.clang::ASTReader::RecordLocation", %"class.clang::GlobalDeclID", %"class.clang::SourceLocation", [4 x i8], i64, i32, [4 x i8], %"class.clang::GlobalDeclID", ptr, i8, [7 x i8] }>
%"class.clang::ASTDeclMerger" = type { ptr }
%"struct.clang::ASTReader::RecordLocation" = type { ptr, i64 }
%"class.clang::SourceLocation" = type { i32 }
%"class.clang::GlobalDeclID" = type { %"class.clang::DeclIDBase" }
%"class.clang::DeclIDBase" = type { i64 }
%"class.llvm::SmallVectorImpl" = type { %"class.llvm::SmallVectorTemplateBase" }
%"class.llvm::SmallVectorTemplateBase" = type { %"class.llvm::SmallVectorTemplateCommon" }
%"class.llvm::SmallVectorTemplateCommon" = type { %"class.llvm::SmallVectorBase" }
%"class.llvm::SmallVectorBase" = type { ptr, i32, i32 }
%"class.llvm::SmallVector.44" = type { %"class.llvm::SmallVectorImpl", %"struct.llvm::SmallVectorStorage.45" }
%"struct.llvm::SmallVectorStorage.45" = type { [512 x i8] }
%"class.clang::ValueDecl" = type { %"class.clang::NamedDecl", %"class.clang::QualType" }
%"class.clang::NamedDecl" = type { %"class.clang::Decl.base", %"class.clang::DeclarationName" }
%"class.clang::Decl.base" = type <{ ptr, %"class.llvm::PointerIntPair.829", %"class.llvm::PointerUnion", %"class.clang::SourceLocation", i32, i8 }>
%"class.llvm::PointerIntPair.829" = type { %"struct.llvm::detail::PunnedPointer.830" }
%"struct.llvm::detail::PunnedPointer.830" = type { [8 x i8] }
%"class.llvm::PointerUnion" = type { %"class.llvm::pointer_union_detail::PointerUnionMembers" }
%"class.llvm::pointer_union_detail::PointerUnionMembers" = type { %"class.llvm::pointer_union_detail::PointerUnionMembers.831" }
%"class.llvm::pointer_union_detail::PointerUnionMembers.831" = type { %"class.llvm::pointer_union_detail::PointerUnionMembers.832" }
%"class.llvm::pointer_union_detail::PointerUnionMembers.832" = type { %"class.llvm::PointerIntPair.833" }
%"class.llvm::PointerIntPair.833" = type { %"struct.llvm::detail::PunnedPointer.834" }
%"struct.llvm::detail::PunnedPointer.834" = type { [8 x i8] }
%"class.clang::DeclarationName" = type { i64 }
%"class.clang::QualType" = type { %"class.llvm::PointerIntPair.596" }
%"class.llvm::PointerIntPair.596" = type { %"struct.llvm::detail::PunnedPointer.597" }
%"struct.llvm::detail::PunnedPointer.597" = type { [8 x i8] }
%"class.clang::DeclContext" = type { ptr, %union.anon.840, ptr, ptr }
%union.anon.840 = type { %"class.clang::DeclContext::RecordDeclBitfields" }
%"class.clang::DeclContext::RecordDeclBitfields" = type { i64 }
%"class.clang::ASTRecordReader" = type { %"class.clang::serialization::DataStreamBasicReader", ptr, ptr, i32, %"class.llvm::SmallVector.44" }
%"class.clang::serialization::DataStreamBasicReader" = type { %"class.clang::serialization::BasicReaderBase" }
%"class.clang::serialization::BasicReaderBase" = type { ptr }
%"struct.clang::LazyOffsetPtr.1163" = type { i64 }
%"class.clang::OMPDeclarativeDirective.1286" = type { %"class.clang::ValueDecl", ptr }
%"class.clang::OMPDeclareMapperDecl" = type { %"class.clang::OMPDeclarativeDirective.1286", %"class.clang::DeclContext", ptr, %"class.clang::DeclarationName", %"struct.clang::LazyOffsetPtr.1163" }

; Function Attrs: mustprogress nounwind uwtable
define linkonce_odr hidden i64 @_ZN5clang15ASTRecordReader10readDeclIDEv(ptr noundef nonnull align 8 dereferenceable(560) %0) #0 comdat align 2 {
  %2 = alloca %"class.clang::GlobalDeclID", align 8
  %3 = alloca ptr, align 8
  store ptr %0, ptr %3, align 8
  %4 = load ptr, ptr %3, align 8
  %5 = getelementptr inbounds nuw %"class.clang::ASTRecordReader", ptr %4, i32 0, i32 1
  %6 = load ptr, ptr %5, align 8
  %7 = getelementptr inbounds nuw %"class.clang::ASTRecordReader", ptr %4, i32 0, i32 2
  %8 = load ptr, ptr %7, align 8
  %9 = getelementptr inbounds nuw %"class.clang::ASTRecordReader", ptr %4, i32 0, i32 4
  %10 = getelementptr inbounds nuw %"class.clang::ASTRecordReader", ptr %4, i32 0, i32 3
  %11 = call i64 @_ZN5clang9ASTReader10ReadDeclIDERNS_13serialization10ModuleFileERKN4llvm15SmallVectorImplImEERj(ptr noundef nonnull align 8 dereferenceable(15968) %6, ptr noundef nonnull align 8 dereferenceable(3464) %8, ptr noundef nonnull align 8 dereferenceable(16) %9, ptr noundef nonnull align 4 dereferenceable(4) %10)
  %12 = getelementptr inbounds nuw %"class.clang::GlobalDeclID", ptr %2, i32 0, i32 0
  %13 = getelementptr inbounds nuw %"class.clang::DeclIDBase", ptr %12, i32 0, i32 0
  store i64 %11, ptr %13, align 8
  %14 = getelementptr inbounds nuw %"class.clang::GlobalDeclID", ptr %2, i32 0, i32 0
  %15 = getelementptr inbounds nuw %"class.clang::DeclIDBase", ptr %14, i32 0, i32 0
  %16 = load i64, ptr %15, align 8
  ret i64 %16
}

; Function Attrs: mustprogress nounwind uwtable
define linkonce_odr hidden noundef nonnull align 8 dereferenceable(8) ptr @_ZN5clang13LazyOffsetPtrINS_4DeclENS_12GlobalDeclIDEXadL_ZNS_17ExternalASTSource15GetExternalDeclES2_EEEaSEm(ptr noundef nonnull align 8 dereferenceable(8) %0, i64 noundef %1) #0 comdat align 2 {
  %3 = alloca ptr, align 8
  %4 = alloca i64, align 8
  store ptr %0, ptr %3, align 8
  store i64 %1, ptr %4, align 8
  %5 = load ptr, ptr %3, align 8
  %6 = load i64, ptr %4, align 8
  %7 = icmp eq i64 %6, 0
  br i1 %7, label %8, label %10

8:                                                ; preds = %2
  %9 = getelementptr inbounds nuw %"struct.clang::LazyOffsetPtr.1163", ptr %5, i32 0, i32 0
  store i64 0, ptr %9, align 8
  br label %15

10:                                               ; preds = %2
  %11 = load i64, ptr %4, align 8
  %12 = shl i64 %11, 1
  %13 = or i64 %12, 1
  %14 = getelementptr inbounds nuw %"struct.clang::LazyOffsetPtr.1163", ptr %5, i32 0, i32 0
  store i64 %13, ptr %14, align 8
  br label %15

15:                                               ; preds = %10, %8
  ret ptr %5
}

; Function Attrs: mustprogress nounwind uwtable
define linkonce_odr hidden noundef i64 @_ZNK5clang10DeclIDBase11getRawValueEv(ptr noundef nonnull align 8 dereferenceable(8) %0) #0 comdat align 2 {
  %2 = alloca ptr, align 8
  store ptr %0, ptr %2, align 8
  %3 = load ptr, ptr %2, align 8
  %4 = getelementptr inbounds nuw %"class.clang::DeclIDBase", ptr %3, i32 0, i32 0
  %5 = load i64, ptr %4, align 8
  ret i64 %5
}

; Function Attrs: mustprogress nounwind uwtable
define linkonce_odr hidden i64 @_ZN5clang13ASTDeclReader10readDeclIDEv(ptr noundef nonnull align 8 dereferenceable(89) %0) #0 comdat align 2 {
  %2 = alloca %"class.clang::GlobalDeclID", align 8
  %3 = alloca ptr, align 8
  store ptr %0, ptr %3, align 8
  %4 = load ptr, ptr %3, align 8
  %5 = getelementptr inbounds nuw %"class.clang::ASTDeclReader", ptr %4, i32 0, i32 2
  %6 = load ptr, ptr %5, align 8
  %7 = call i64 @_ZN5clang15ASTRecordReader10readDeclIDEv(ptr noundef nonnull align 8 dereferenceable(560) %6)
  %8 = getelementptr inbounds nuw %"class.clang::GlobalDeclID", ptr %2, i32 0, i32 0
  %9 = getelementptr inbounds nuw %"class.clang::DeclIDBase", ptr %8, i32 0, i32 0
  store i64 %7, ptr %9, align 8
  %10 = getelementptr inbounds nuw %"class.clang::GlobalDeclID", ptr %2, i32 0, i32 0
  %11 = getelementptr inbounds nuw %"class.clang::DeclIDBase", ptr %10, i32 0, i32 0
  %12 = load i64, ptr %11, align 8
  ret i64 %12
}

; Function Attrs: mustprogress nounwind uwtable
define dso_local void @_ZN5clang13ASTDeclReader25VisitOMPDeclareMapperDeclEPNS_20OMPDeclareMapperDeclE(ptr noundef nonnull align 8 dereferenceable(89) %0, ptr noundef %1) #0 align 2 {
  %3 = alloca ptr, align 8
  %4 = alloca ptr, align 8
  %5 = alloca %"class.clang::DeclarationName", align 8
  %6 = alloca %"class.clang::GlobalDeclID", align 8
  store ptr %0, ptr %3, align 8
  store ptr %1, ptr %4, align 8
  %7 = load ptr, ptr %3, align 8
  %8 = getelementptr inbounds nuw %"class.clang::ASTDeclReader", ptr %7, i32 0, i32 2
  %9 = load ptr, ptr %8, align 8
  %10 = load ptr, ptr %4, align 8
  %11 = getelementptr inbounds nuw %"class.clang::OMPDeclarativeDirective.1286", ptr %10, i32 0, i32 1
  %12 = load ptr, ptr %11, align 8
  call void @_ZN5clang15ASTRecordReader15readOMPChildrenEPNS_11OMPChildrenE(ptr noundef nonnull align 8 dereferenceable(560) %9, ptr noundef %12)
  %13 = load ptr, ptr %4, align 8
  call void @_ZN5clang13ASTDeclReader14VisitValueDeclEPNS_9ValueDeclE(ptr noundef nonnull align 8 dereferenceable(89) %7, ptr noundef %13)
  %14 = getelementptr inbounds nuw %"class.clang::ASTDeclReader", ptr %7, i32 0, i32 2
  %15 = load ptr, ptr %14, align 8
  %16 = call i64 @_ZN5clang13serialization15BasicReaderBaseINS_15ASTRecordReaderEE19readDeclarationNameEv(ptr noundef nonnull align 8 dereferenceable(8) %15)
  %17 = getelementptr inbounds nuw %"class.clang::DeclarationName", ptr %5, i32 0, i32 0
  store i64 %16, ptr %17, align 8
  %18 = load ptr, ptr %4, align 8
  %19 = getelementptr inbounds nuw %"class.clang::OMPDeclareMapperDecl", ptr %18, i32 0, i32 3
  call void @llvm.memcpy.p0.p0.i64(ptr align 8 %19, ptr align 8 %5, i64 8, i1 false)
  %20 = call i64 @_ZN5clang13ASTDeclReader10readDeclIDEv(ptr noundef nonnull align 8 dereferenceable(89) %7)
  %21 = getelementptr inbounds nuw %"class.clang::GlobalDeclID", ptr %6, i32 0, i32 0
  %22 = getelementptr inbounds nuw %"class.clang::DeclIDBase", ptr %21, i32 0, i32 0
  store i64 %20, ptr %22, align 8
  %23 = call noundef i64 @_ZNK5clang10DeclIDBase11getRawValueEv(ptr noundef nonnull align 8 dereferenceable(8) %6)
  %24 = load ptr, ptr %4, align 8
  %25 = getelementptr inbounds nuw %"class.clang::OMPDeclareMapperDecl", ptr %24, i32 0, i32 4
  %26 = call noundef nonnull align 8 dereferenceable(8) ptr @_ZN5clang13LazyOffsetPtrINS_4DeclENS_12GlobalDeclIDEXadL_ZNS_17ExternalASTSource15GetExternalDeclES2_EEEaSEm(ptr noundef nonnull align 8 dereferenceable(8) %25, i64 noundef %23)
  ret void
}