; Function Attrs: mustprogress nounwind uwtable
define dso_local void @_ZN5clang13ASTDeclReader25VisitOMPDeclareMapperDeclEPNS_20OMPDeclareMapperDeclE(ptr nocapture noundef nonnull align 8 dereferenceable(89) %0, ptr noundef %1) local_unnamed_addr #1 align 2 {
  %3 = getelementptr inbounds nuw i8, ptr %0, i64 16
  %4 = load ptr, ptr %3, align 8
  %5 = getelementptr inbounds nuw i8, ptr %1, i64 56
  %6 = load ptr, ptr %5, align 8
  tail call void @_ZN5clang15ASTRecordReader15readOMPChildrenEPNS_11OMPChildrenE(ptr noundef nonnull align 8 dereferenceable(560) %4, ptr noundef %6) #26
  tail call void @_ZN5clang13ASTDeclReader14VisitValueDeclEPNS_9ValueDeclE(ptr noundef nonnull align 8 dereferenceable(89) %0, ptr noundef %1)
  %7 = load ptr, ptr %3, align 8
  %8 = tail call i64 @_ZN5clang13serialization15BasicReaderBaseINS_15ASTRecordReaderEE19readDeclarationNameEv(ptr noundef nonnull align 8 dereferenceable(8) %7)
  %9 = getelementptr inbounds nuw i8, ptr %1, i64 104
  store i64 %8, ptr %9, align 8
  %10 = load ptr, ptr %3, align 8
  %11 = getelementptr inbounds nuw i8, ptr %10, i64 8
  %12 = load ptr, ptr %11, align 8
  %13 = getelementptr inbounds nuw i8, ptr %10, i64 16
  %14 = load ptr, ptr %13, align 8
  %15 = getelementptr inbounds nuw i8, ptr %10, i64 32
  %16 = getelementptr inbounds nuw i8, ptr %10, i64 24
  %17 = tail call i64 @_ZN5clang9ASTReader10ReadDeclIDERNS_13serialization10ModuleFileERKN4llvm15SmallVectorImplImEERj(ptr noundef nonnull align 8 dereferenceable(15968) %12, ptr noundef nonnull align 8 dereferenceable(3464) %14, ptr noundef nonnull align 8 dereferenceable(16) %15, ptr noundef nonnull align 4 dereferenceable(4) %16) #26
  %18 = getelementptr inbounds nuw i8, ptr %1, i64 112
  %19 = icmp eq i64 %17, 0
  %20 = shl i64 %17, 1
  %21 = or disjoint i64 %20, 1
  %storemerge.i = select i1 %19, i64 0, i64 %21
  store i64 %storemerge.i, ptr %18, align 8
  ret void
}